target datalayout = "e-m:e-p270:32:32-p271:32:32-p272:64:64-i64:64-i128:128-f80:128-n8:16:32:64-S128"
target triple = "x86_64-unknown-linux-gnu"

@.str = private unnamed_addr constant [41 x i8] c"drivers/gpu/drm/i915/display/intel_dsi.c\00", align 1
@.str.1 = private unnamed_addr constant [2 x i8] c"\0A\00", align 1
@kmalloc_caches = external dso_local local_unnamed_addr global [3 x [14 x ptr]], align 16

; Function Attrs: fn_ret_thunk_extern nounwind null_pointer_is_valid
define dso_local void @intel_dsi_wait_panel_power_cycle(ptr nocapture noundef readonly %0) local_unnamed_addr #0 align 16 {
  %2 = tail call i64 @ktime_get_with_offset(i32 noundef 1) #5
  %3 = getelementptr inbounds i8, ptr %0, i64 648
  %4 = load i64, ptr %3, align 8
  %5 = sub i64 %2, %4
  %6 = sdiv i64 %5, 1000000
  %7 = getelementptr inbounds i8, ptr %0, i64 642
  %8 = load i16, ptr %7, align 2
  %9 = zext i16 %8 to i64
  %10 = icmp slt i64 %6, %9
  br i1 %10, label %11, label %14

11:                                               ; preds = %1
  %12 = sub nsw i64 %9, %6
  %13 = trunc i64 %12 to i32
  tail call void @msleep(i32 noundef %13) #5
  br label %14

14:                                               ; preds = %11, %1
  ret void
}

; Function Attrs: null_pointer_is_valid
declare dso_local void @msleep(i32 noundef) local_unnamed_addr #1

; Function Attrs: fn_ret_thunk_extern nounwind null_pointer_is_valid
define dso_local void @intel_dsi_shutdown(ptr nocapture noundef readonly %0) local_unnamed_addr #0 align 16 {
  %2 = tail call i64 @ktime_get_with_offset(i32 noundef 1) #5
  %3 = getelementptr inbounds i8, ptr %0, i64 648
  %4 = load i64, ptr %3, align 8
  %5 = sub i64 %2, %4
  %6 = sdiv i64 %5, 1000000
  %7 = getelementptr inbounds i8, ptr %0, i64 642
  %8 = load i16, ptr %7, align 2
  %9 = zext i16 %8 to i64
  %10 = icmp slt i64 %6, %9
  br i1 %10, label %11, label %14

11:                                               ; preds = %1
  %12 = sub nsw i64 %9, %6
  %13 = trunc i64 %12 to i32
  tail call void @msleep(i32 noundef %13) #5
  br label %14

14:                                               ; preds = %11, %1
  ret void
}

; Function Attrs: fn_ret_thunk_extern nounwind null_pointer_is_valid
define dso_local i32 @intel_dsi_bitrate(ptr nocapture noundef readonly %0) local_unnamed_addr #0 align 16 {
  %2 = getelementptr inbounds i8, ptr %0, i64 572
  %3 = load i32, ptr %2, align 4
  switch i32 %3, label %6 [
    i32 0, label %7
    i32 1, label %7
    i32 2, label %4
    i32 3, label %5
  ]

4:                                                ; preds = %1
  br label %7

5:                                                ; preds = %1
  br label %7

6:                                                ; preds = %1
  br label %7

7:                                                ; preds = %6, %5, %4, %1, %1
  %8 = phi i1 [ true, %6 ], [ false, %5 ], [ false, %4 ], [ false, %1 ], [ false, %1 ]
  %9 = phi i32 [ -22, %6 ], [ 16, %5 ], [ 18, %4 ], [ 24, %1 ], [ 24, %1 ]
  br i1 %8, label %10, label %11, !prof !5

10:                                               ; preds = %7
  tail call void asm sideeffect "589: nop\0A\09.pushsection .discard.instr_begin\0A\09.long 589b - .\0A\09.popsection\0A\09", "i,~{dirflag},~{fpsr},~{flags}"(i32 589) #5, !srcloc !6
  tail call void asm sideeffect "1:\09.byte 0x0f, 0x0b\0A.pushsection __bug_table,\22aw\22\0A2:\09.long 1b - .\09# bug_entry::bug_addr\0A\09.long ${0:c} - .\09# bug_entry::file\0A\09.word ${1:c}\09# bug_entry::line\0A\09.word ${2:c}\09# bug_entry::flags\0A\09.org 2b+${3:c}\0A.popsection\0A998:\0A\09.pushsection .discard.reachable\0A\09.long 998b\0A\09.popsection\0A\09", "i,i,i,i,~{dirflag},~{fpsr},~{flags}"(ptr nonnull @.str, i32 36, i32 2305, i64 12) #5, !srcloc !7
  tail call void asm sideeffect "590: nop\0A\09.pushsection .discard.instr_end\0A\09.long 590b - .\0A\09.popsection\0A\09", "i,~{dirflag},~{fpsr},~{flags}"(i32 590) #5, !srcloc !8
  br label %11

11:                                               ; preds = %10, %7
  %12 = phi i32 [ 16, %10 ], [ %9, %7 ]
  %13 = getelementptr inbounds i8, ptr %0, i64 628
  %14 = load i32, ptr %13, align 4
  %15 = mul i32 %14, %12
  %16 = getelementptr inbounds i8, ptr %0, i64 564
  %17 = load i32, ptr %16, align 4
  %18 = udiv i32 %15, %17
  ret i32 %18
}

; Function Attrs: fn_ret_thunk_extern mustprogress nofree norecurse nosync nounwind null_pointer_is_valid willreturn memory(argmem: read)
define dso_local i32 @intel_dsi_tlpx_ns(ptr nocapture noundef readonly %0) local_unnamed_addr #2 align 16 {
  %2 = getelementptr inbounds i8, ptr %0, i64 582
  %3 = load i8, ptr %2, align 2
  %4 = icmp eq i8 %3, 1
  %5 = select i1 %4, i32 100, i32 50
  %6 = icmp eq i8 %3, 2
  %7 = select i1 %6, i32 200, i32 %5
  ret i32 %7
}

; Function Attrs: fn_ret_thunk_extern nounwind null_pointer_is_valid
define dso_local i32 @intel_dsi_get_modes(ptr noundef %0) local_unnamed_addr #0 align 16 {
  %2 = tail call i32 @intel_panel_get_modes(ptr noundef %0) #5
  ret i32 %2
}

; Function Attrs: null_pointer_is_valid
declare dso_local i32 @intel_panel_get_modes(ptr noundef) local_unnamed_addr #1

; Function Attrs: fn_ret_thunk_extern nounwind null_pointer_is_valid
define dso_local i32 @intel_dsi_mode_valid(ptr noundef %0, ptr noundef %1) local_unnamed_addr #0 align 16 {
  %3 = load ptr, ptr %0, align 8
  %4 = tail call ptr @intel_panel_fixed_mode(ptr noundef %0, ptr noundef %1) #5
  %5 = load ptr, ptr %0, align 8
  %6 = getelementptr inbounds i8, ptr %5, i64 8076
  %7 = load i32, ptr %6, align 4
  %8 = icmp eq ptr %3, null
  br i1 %8, label %12, label %9

9:                                                ; preds = %2
  %10 = getelementptr inbounds i8, ptr %3, i64 8
  %11 = load ptr, ptr %10, align 8
  br label %12

12:                                               ; preds = %9, %2
  %13 = phi ptr [ %11, %9 ], [ null, %2 ]
  tail call void (ptr, ptr, i32, ptr, ...) @__drm_dev_dbg(ptr noundef null, ptr noundef %13, i32 noundef 2, ptr noundef nonnull @.str.1) #5
  %14 = getelementptr inbounds i8, ptr %1, i64 24
  %15 = load i32, ptr %14, align 8
  %16 = and i32 %15, 32
  %17 = icmp eq i32 %16, 0
  br i1 %17, label %18, label %26

18:                                               ; preds = %12
  %19 = tail call i32 @intel_panel_mode_valid(ptr noundef %0, ptr noundef %1) #5
  %20 = icmp eq i32 %19, 0
  br i1 %20, label %21, label %26

21:                                               ; preds = %18
  %22 = load i32, ptr %4, align 8
  %23 = icmp sgt i32 %22, %7
  br i1 %23, label %26, label %24

24:                                               ; preds = %21
  %25 = tail call i32 @intel_mode_valid_max_plane_size(ptr noundef %3, ptr noundef %1, i1 noundef zeroext false) #5
  br label %26

26:                                               ; preds = %24, %21, %18, %12
  %27 = phi i32 [ %25, %24 ], [ 8, %12 ], [ %19, %18 ], [ 15, %21 ]
  ret i32 %27
}

; Function Attrs: null_pointer_is_valid
declare dso_local ptr @intel_panel_fixed_mode(ptr noundef, ptr noundef) local_unnamed_addr #1

; Function Attrs: null_pointer_is_valid
declare dso_local void @__drm_dev_dbg(ptr noundef, ptr noundef, i32 noundef, ptr noundef, ...) local_unnamed_addr #1

; Function Attrs: null_pointer_is_valid
declare dso_local i32 @intel_panel_mode_valid(ptr noundef, ptr noundef) local_unnamed_addr #1

; Function Attrs: null_pointer_is_valid
declare dso_local i32 @intel_mode_valid_max_plane_size(ptr noundef, ptr noundef, i1 noundef zeroext) local_unnamed_addr #1

; Function Attrs: fn_ret_thunk_extern nounwind null_pointer_is_valid
define dso_local noundef ptr @intel_dsi_host_init(ptr noundef %0, ptr noundef %1, i32 noundef %2) local_unnamed_addr #0 align 16 {
  %4 = load ptr, ptr getelementptr inbounds ([3 x [14 x ptr]], ptr @kmalloc_caches, i64 0, i64 0, i64 6), align 16
  %5 = tail call noalias align 8 dereferenceable_or_null(56) ptr @kmalloc_trace(ptr noundef %4, i32 noundef 3520, i64 noundef 56) #6
  %6 = icmp eq ptr %5, null
  br i1 %6, label %17, label %7

7:                                                ; preds = %3
  %8 = getelementptr inbounds i8, ptr %5, i64 8
  store ptr %1, ptr %8, align 8
  %9 = getelementptr inbounds i8, ptr %5, i64 32
  store ptr %0, ptr %9, align 8
  %10 = getelementptr inbounds i8, ptr %5, i64 40
  store i32 %2, ptr %10, align 8
  %11 = load ptr, ptr getelementptr inbounds ([3 x [14 x ptr]], ptr @kmalloc_caches, i64 0, i64 0, i64 10), align 16
  %12 = tail call noalias align 8 dereferenceable_or_null(808) ptr @kmalloc_trace(ptr noundef %11, i32 noundef 3520, i64 noundef 808) #6
  %13 = icmp eq ptr %12, null
  br i1 %13, label %14, label %15

14:                                               ; preds = %7
  tail call void @kfree(ptr noundef nonnull %5) #5
  br label %17

15:                                               ; preds = %7
  store ptr %5, ptr %12, align 8
  %16 = getelementptr inbounds i8, ptr %5, i64 48
  store ptr %12, ptr %16, align 8
  br label %17

17:                                               ; preds = %15, %14, %3
  %18 = phi ptr [ %5, %15 ], [ null, %14 ], [ null, %3 ]
  ret ptr %18
}

; Function Attrs: null_pointer_is_valid
declare dso_local void @kfree(ptr noundef) local_unnamed_addr #1

; Function Attrs: fn_ret_thunk_extern mustprogress nofree norecurse nosync nounwind null_pointer_is_valid willreturn memory(read, inaccessiblemem: none)
define dso_local i32 @intel_dsi_get_panel_orientation(ptr nocapture noundef readonly %0) local_unnamed_addr #3 align 16 {
  %2 = getelementptr inbounds i8, ptr %0, i64 2392
  %3 = load i32, ptr %2, align 8
  %4 = icmp eq i32 %3, -1
  br i1 %4, label %5, label %11

5:                                                ; preds = %1
  %6 = load ptr, ptr %0, align 8
  %7 = getelementptr inbounds i8, ptr %6, i64 6824
  %8 = load i32, ptr %7, align 8
  %9 = icmp eq i32 %8, -1
  %10 = select i1 %9, i32 0, i32 %8
  br label %11

11:                                               ; preds = %5, %1
  %12 = phi i32 [ %3, %1 ], [ %10, %5 ]
  ret i32 %12
}

; Function Attrs: null_pointer_is_valid
declare dso_local i64 @ktime_get_with_offset(i32 noundef) local_unnamed_addr #1

; Function Attrs: null_pointer_is_valid allocsize(2)
declare dso_local noalias ptr @kmalloc_trace(ptr noundef, i32 noundef, i64 noundef) local_unnamed_addr #4


!llvm.module.flags = !{!0, !1, !2, !3, !4}

!0 = !{i32 1, !"wchar_size", i32 2}
!1 = !{i32 8, !"cf-protection-branch", i32 1}
!2 = !{i32 4, !"function_return_thunk_extern", i32 1}
!3 = !{i32 4, !"indirect_branch_cs_prefix", i32 1}
!4 = !{i32 4, !"SkipRaxSetup", i32 1}
!5 = !{!"branch_weights", i32 1, i32 2000}
!6 = !{i64 2160350337, i64 2160350146, i64 2160350198, i64 2160350244, i64 2160350272}
!7 = !{i64 2160350411, i64 2160350440, i64 2160350486, i64 2160350544, i64 2160350598, i64 2160350652, i64 2160350707, i64 2160350738, i64 2160351046, i64 2160351052, i64 2160351099, i64 2160351122, i64 2160351148}
!8 = !{i64 2160351620, i64 2160351431, i64 2160351481, i64 2160351527, i64 2160351555}
